target datalayout = "e-m:e-p270:32:32-p271:32:32-p272:64:64-i64:64-i128:128-f80:128-n8:16:32:64-S128"
target triple = "x86_64-pc-linux-gnu"

%struct._typeobject = type { %struct.PyVarObject, ptr, i64, i64, ptr, i64, ptr, ptr, ptr, ptr, ptr, ptr, ptr, ptr, ptr, ptr, ptr, ptr, ptr, i64, ptr, ptr, ptr, ptr, i64, ptr, ptr, ptr, ptr, ptr, ptr, ptr, ptr, ptr, i64, ptr, ptr, ptr, ptr, ptr, ptr, ptr, ptr, ptr, ptr, ptr, i32, ptr, ptr, i8, i16 }
%struct.PyVarObject = type { %struct._object, i64 }
%struct._object = type { %union.anon, ptr }
%union.anon = type { i64 }
%struct._ts = type { ptr, ptr, ptr, i64, %struct.anon.0, i32, i32, i32, i32, i32, i32, i32, i32, ptr, ptr, ptr, ptr, ptr, ptr, ptr, ptr, i32, ptr, i64, i64, ptr, i64, i32, ptr, ptr, ptr, i64, i64, ptr, ptr, ptr, %struct._err_stackitem, ptr, i64, ptr, ptr }
%struct.anon.0 = type { i32 }
%struct._err_stackitem = type { ptr, ptr }

@__func__._Py_CheckSlotResult = private unnamed_addr constant [20 x i8] c"_Py_CheckSlotResult\00", align 1
@.str.4 = private unnamed_addr constant [55 x i8] c"Slot %s of type %s failed without setting an exception\00", align 1
@.str.5 = private unnamed_addr constant [51 x i8] c"Slot %s of type %s succeeded with an exception set\00", align 1
@_Py_tss_tstate = external thread_local global ptr, align 8

; Function Attrs: inlinehint nounwind uwtable
define internal ptr @_Py_TYPE(ptr noundef %0) #1 {
  %2 = alloca ptr, align 8
  store ptr %0, ptr %2, align 8, !tbaa !9
  %3 = load ptr, ptr %2, align 8, !tbaa !9
  %4 = getelementptr inbounds nuw %struct._object, ptr %3, i32 0, i32 1
  %5 = load ptr, ptr %4, align 8, !tbaa !35
  ret ptr %5
}

; Function Attrs: inlinehint nounwind uwtable
define internal ptr @_PyErr_Occurred(ptr noundef %0) #1 {
  %2 = alloca ptr, align 8
  %3 = alloca ptr, align 8
  store ptr %0, ptr %3, align 8, !tbaa !4
  %4 = load ptr, ptr %3, align 8, !tbaa !4
  %5 = getelementptr inbounds nuw %struct._ts, ptr %4, i32 0, i32 18
  %6 = load ptr, ptr %5, align 8, !tbaa !13
  %7 = icmp eq ptr %6, null
  br i1 %7, label %8, label %9

8:                                                ; preds = %1
  store ptr null, ptr %2, align 8
  br label %14

9:                                                ; preds = %1
  %10 = load ptr, ptr %3, align 8, !tbaa !4
  %11 = getelementptr inbounds nuw %struct._ts, ptr %10, i32 0, i32 18
  %12 = load ptr, ptr %11, align 8, !tbaa !13
  %13 = call ptr @_Py_TYPE(ptr noundef %12)
  store ptr %13, ptr %2, align 8
  br label %14

14:                                               ; preds = %9, %8
  %15 = load ptr, ptr %2, align 8
  ret ptr %15
}

; Function Attrs: inlinehint nounwind uwtable
define internal ptr @_PyThreadState_GET() #1 {
  %1 = call align 8 ptr @llvm.threadlocal.address.p0(ptr align 8 @_Py_tss_tstate)
  %2 = load ptr, ptr %1, align 8, !tbaa !4
  ret ptr %2
}

; Function Attrs: nounwind uwtable
define hidden i32 @_Py_CheckSlotResult(ptr noundef %0, ptr noundef %1, i32 noundef %2) #0 {
  %4 = alloca ptr, align 8
  %5 = alloca ptr, align 8
  %6 = alloca i32, align 4
  %7 = alloca ptr, align 8
  store ptr %0, ptr %4, align 8, !tbaa !9
  store ptr %1, ptr %5, align 8, !tbaa !11
  store i32 %2, ptr %6, align 4, !tbaa !25
  call void @llvm.lifetime.start.p0(i64 8, ptr %7) #9
  %8 = call ptr @_PyThreadState_GET()
  store ptr %8, ptr %7, align 8, !tbaa !4
  %9 = load i32, ptr %6, align 4, !tbaa !25
  %10 = icmp ne i32 %9, 0
  br i1 %10, label %22, label %11

11:                                               ; preds = %3
  %12 = load ptr, ptr %7, align 8, !tbaa !4
  %13 = call ptr @_PyErr_Occurred(ptr noundef %12)
  %14 = icmp ne ptr %13, null
  br i1 %14, label %21, label %15

15:                                               ; preds = %11
  %16 = load ptr, ptr %5, align 8, !tbaa !11
  %17 = load ptr, ptr %4, align 8, !tbaa !9
  %18 = call ptr @_Py_TYPE(ptr noundef %17)
  %19 = getelementptr inbounds nuw %struct._typeobject, ptr %18, i32 0, i32 1
  %20 = load ptr, ptr %19, align 8, !tbaa !26
  call void (ptr, ptr, ...) @_Py_FatalErrorFormat(ptr noundef @__func__._Py_CheckSlotResult, ptr noundef @.str.4, ptr noundef %16, ptr noundef %20) #10
  unreachable

21:                                               ; preds = %11
  br label %33

22:                                               ; preds = %3
  %23 = load ptr, ptr %7, align 8, !tbaa !4
  %24 = call ptr @_PyErr_Occurred(ptr noundef %23)
  %25 = icmp ne ptr %24, null
  br i1 %25, label %26, label %32

26:                                               ; preds = %22
  %27 = load ptr, ptr %5, align 8, !tbaa !11
  %28 = load ptr, ptr %4, align 8, !tbaa !9
  %29 = call ptr @_Py_TYPE(ptr noundef %28)
  %30 = getelementptr inbounds nuw %struct._typeobject, ptr %29, i32 0, i32 1
  %31 = load ptr, ptr %30, align 8, !tbaa !26
  call void (ptr, ptr, ...) @_Py_FatalErrorFormat(ptr noundef @__func__._Py_CheckSlotResult, ptr noundef @.str.5, ptr noundef %27, ptr noundef %31) #10
  unreachable

32:                                               ; preds = %22
  br label %33

33:                                               ; preds = %32, %21
  call void @llvm.lifetime.end.p0(i64 8, ptr %7) #9
  ret i32 1
}