; Function Attrs: nounwind uwtable
define hidden noundef i32 @_Py_CheckSlotResult(ptr noundef readonly captures(none) %0, ptr noundef %1, i32 noundef %2) local_unnamed_addr #0 {
  %4 = tail call align 8 ptr @llvm.threadlocal.address.p0(ptr align 8 @_Py_tss_tstate)
  %5 = load ptr, ptr %4, align 8, !tbaa !25
  %.not = icmp eq i32 %2, 0
  %6 = getelementptr i8, ptr %5, i64 112
  %.val10 = load ptr, ptr %6, align 8, !tbaa !4
  %7 = icmp eq ptr %.val10, null
  br i1 %.not, label %8, label %13

8:                                                ; preds = %3
  br i1 %7, label %_PyErr_Occurred.exit.thread, label %_PyErr_Occurred.exit

_PyErr_Occurred.exit:                             ; preds = %8
  %9 = getelementptr i8, ptr %.val10, i64 8
  %.val.i = load ptr, ptr %9, align 8, !tbaa !20
  %.not6 = icmp eq ptr %.val.i, null
  br i1 %.not6, label %_PyErr_Occurred.exit.thread, label %_PyErr_Occurred.exit13.thread

_PyErr_Occurred.exit.thread:                      ; preds = %8, %_PyErr_Occurred.exit
  %10 = getelementptr i8, ptr %0, i64 8
  %.val = load ptr, ptr %10, align 8, !tbaa !20
  %11 = getelementptr inbounds nuw i8, ptr %.val, i64 24
  %12 = load ptr, ptr %11, align 8, !tbaa !26
  tail call void (ptr, ptr, ...) @_Py_FatalErrorFormat(ptr noundef nonnull @__func__._Py_CheckSlotResult, ptr noundef nonnull @.str.4, ptr noundef %1, ptr noundef %12) #11
  unreachable

13:                                               ; preds = %3
  br i1 %7, label %_PyErr_Occurred.exit13.thread, label %_PyErr_Occurred.exit13

_PyErr_Occurred.exit13:                           ; preds = %13
  %14 = getelementptr i8, ptr %.val10, i64 8
  %.val.i11 = load ptr, ptr %14, align 8, !tbaa !20
  %.not7 = icmp eq ptr %.val.i11, null
  br i1 %.not7, label %_PyErr_Occurred.exit13.thread, label %15

15:                                               ; preds = %_PyErr_Occurred.exit13
  %16 = getelementptr i8, ptr %0, i64 8
  %.val8 = load ptr, ptr %16, align 8, !tbaa !20
  %17 = getelementptr inbounds nuw i8, ptr %.val8, i64 24
  %18 = load ptr, ptr %17, align 8, !tbaa !26
  tail call void (ptr, ptr, ...) @_Py_FatalErrorFormat(ptr noundef nonnull @__func__._Py_CheckSlotResult, ptr noundef nonnull @.str.5, ptr noundef %1, ptr noundef %18) #11
  unreachable

_PyErr_Occurred.exit13.thread:                    ; preds = %13, %_PyErr_Occurred.exit13, %_PyErr_Occurred.exit
  ret i32 1
}